target datalayout = "e-m:e-p270:32:32-p271:32:32-p272:64:64-i64:64-i128:128-f80:128-n8:16:32:64-S128"
target triple = "x86_64-pc-linux-gnu"

%struct.t_xrama = type { i32, ptr, i32, ptr, ptr, i32, i32, i32, float, ptr, [3 x [3 x float]], ptr, i32, ptr }
%struct.t_dih = type { [4 x i32], i32, float, float }

; Function Attrs: mustprogress uwtable
define internal void @_ZL9calc_dihsP7t_xrama(ptr noundef %0) #0 {
  %2 = alloca ptr, align 8
  %3 = alloca i32, align 4
  %4 = alloca i32, align 4
  %5 = alloca i32, align 4
  %6 = alloca i32, align 4
  %7 = alloca [3 x float], align 4
  %8 = alloca [3 x float], align 4
  %9 = alloca [3 x float], align 4
  %10 = alloca [3 x float], align 4
  %11 = alloca [3 x float], align 4
  %12 = alloca ptr, align 8
  %13 = alloca ptr, align 8
  store ptr %0, ptr %2, align 8, !tbaa !4
  call void @llvm.lifetime.start.p0(i64 4, ptr %3) #14
  call void @llvm.lifetime.start.p0(i64 4, ptr %4) #14
  call void @llvm.lifetime.start.p0(i64 4, ptr %5) #14
  call void @llvm.lifetime.start.p0(i64 4, ptr %6) #14
  call void @llvm.lifetime.start.p0(i64 12, ptr %7) #14
  call void @llvm.lifetime.start.p0(i64 12, ptr %8) #14
  call void @llvm.lifetime.start.p0(i64 12, ptr %9) #14
  call void @llvm.lifetime.start.p0(i64 12, ptr %10) #14
  call void @llvm.lifetime.start.p0(i64 12, ptr %11) #14
  call void @llvm.lifetime.start.p0(i64 8, ptr %12) #14
  call void @llvm.lifetime.start.p0(i64 8, ptr %13) #14
  store ptr null, ptr %13, align 8, !tbaa !19
  %14 = load ptr, ptr %2, align 8, !tbaa !4
  %15 = getelementptr inbounds nuw %struct.t_xrama, ptr %14, i32 0, i32 11
  %16 = load ptr, ptr %15, align 8, !tbaa !21
  %17 = load ptr, ptr %2, align 8, !tbaa !4
  %18 = getelementptr inbounds nuw %struct.t_xrama, ptr %17, i32 0, i32 12
  %19 = load i32, ptr %18, align 8, !tbaa !22
  %20 = load ptr, ptr %2, align 8, !tbaa !4
  %21 = getelementptr inbounds nuw %struct.t_xrama, ptr %20, i32 0, i32 5
  %22 = load i32, ptr %21, align 8, !tbaa !23
  %23 = call noundef ptr @_Z14gmx_rmpbc_initPK6t_idef7PbcTypei(ptr noundef %16, i32 noundef %19, i32 noundef %22)
  store ptr %23, ptr %13, align 8, !tbaa !19
  %24 = load ptr, ptr %13, align 8, !tbaa !19
  %25 = load ptr, ptr %2, align 8, !tbaa !4
  %26 = getelementptr inbounds nuw %struct.t_xrama, ptr %25, i32 0, i32 5
  %27 = load i32, ptr %26, align 8, !tbaa !23
  %28 = load ptr, ptr %2, align 8, !tbaa !4
  %29 = getelementptr inbounds nuw %struct.t_xrama, ptr %28, i32 0, i32 10
  %30 = getelementptr inbounds [3 x [3 x float]], ptr %29, i64 0, i64 0
  %31 = load ptr, ptr %2, align 8, !tbaa !4
  %32 = getelementptr inbounds nuw %struct.t_xrama, ptr %31, i32 0, i32 9
  %33 = load ptr, ptr %32, align 8, !tbaa !18
  call void @_Z15gmx_rmpbc_applyP9gmx_rmpbciPA3_KfPA3_f(ptr noundef %24, i32 noundef %27, ptr noundef %30, ptr noundef %33)
  %34 = load ptr, ptr %13, align 8, !tbaa !19
  call void @_Z14gmx_rmpbc_doneP9gmx_rmpbc(ptr noundef %34)
  store i32 0, ptr %3, align 4, !tbaa !24
  br label %35

35:                                               ; preds = %96, %1
  %36 = load i32, ptr %3, align 4, !tbaa !24
  %37 = load ptr, ptr %2, align 8, !tbaa !4
  %38 = getelementptr inbounds nuw %struct.t_xrama, ptr %37, i32 0, i32 0
  %39 = load i32, ptr %38, align 8, !tbaa !25
  %40 = icmp slt i32 %36, %39
  br i1 %40, label %41, label %99

41:                                               ; preds = %35
  %42 = load ptr, ptr %2, align 8, !tbaa !4
  %43 = getelementptr inbounds nuw %struct.t_xrama, ptr %42, i32 0, i32 1
  %44 = load ptr, ptr %43, align 8, !tbaa !26
  %45 = load i32, ptr %3, align 4, !tbaa !24
  %46 = sext i32 %45 to i64
  %47 = getelementptr inbounds %struct.t_dih, ptr %44, i64 %46
  store ptr %47, ptr %12, align 8, !tbaa !4
  %48 = load ptr, ptr %2, align 8, !tbaa !4
  %49 = getelementptr inbounds nuw %struct.t_xrama, ptr %48, i32 0, i32 9
  %50 = load ptr, ptr %49, align 8, !tbaa !18
  %51 = load ptr, ptr %12, align 8, !tbaa !4
  %52 = getelementptr inbounds nuw %struct.t_dih, ptr %51, i32 0, i32 0
  %53 = getelementptr inbounds [4 x i32], ptr %52, i64 0, i64 0
  %54 = load i32, ptr %53, align 4, !tbaa !24
  %55 = sext i32 %54 to i64
  %56 = getelementptr inbounds [3 x float], ptr %50, i64 %55
  %57 = getelementptr inbounds [3 x float], ptr %56, i64 0, i64 0
  %58 = load ptr, ptr %2, align 8, !tbaa !4
  %59 = getelementptr inbounds nuw %struct.t_xrama, ptr %58, i32 0, i32 9
  %60 = load ptr, ptr %59, align 8, !tbaa !18
  %61 = load ptr, ptr %12, align 8, !tbaa !4
  %62 = getelementptr inbounds nuw %struct.t_dih, ptr %61, i32 0, i32 0
  %63 = getelementptr inbounds [4 x i32], ptr %62, i64 0, i64 1
  %64 = load i32, ptr %63, align 4, !tbaa !24
  %65 = sext i32 %64 to i64
  %66 = getelementptr inbounds [3 x float], ptr %60, i64 %65
  %67 = getelementptr inbounds [3 x float], ptr %66, i64 0, i64 0
  %68 = load ptr, ptr %2, align 8, !tbaa !4
  %69 = getelementptr inbounds nuw %struct.t_xrama, ptr %68, i32 0, i32 9
  %70 = load ptr, ptr %69, align 8, !tbaa !18
  %71 = load ptr, ptr %12, align 8, !tbaa !4
  %72 = getelementptr inbounds nuw %struct.t_dih, ptr %71, i32 0, i32 0
  %73 = getelementptr inbounds [4 x i32], ptr %72, i64 0, i64 2
  %74 = load i32, ptr %73, align 4, !tbaa !24
  %75 = sext i32 %74 to i64
  %76 = getelementptr inbounds [3 x float], ptr %70, i64 %75
  %77 = getelementptr inbounds [3 x float], ptr %76, i64 0, i64 0
  %78 = load ptr, ptr %2, align 8, !tbaa !4
  %79 = getelementptr inbounds nuw %struct.t_xrama, ptr %78, i32 0, i32 9
  %80 = load ptr, ptr %79, align 8, !tbaa !18
  %81 = load ptr, ptr %12, align 8, !tbaa !4
  %82 = getelementptr inbounds nuw %struct.t_dih, ptr %81, i32 0, i32 0
  %83 = getelementptr inbounds [4 x i32], ptr %82, i64 0, i64 3
  %84 = load i32, ptr %83, align 4, !tbaa !24
  %85 = sext i32 %84 to i64
  %86 = getelementptr inbounds [3 x float], ptr %80, i64 %85
  %87 = getelementptr inbounds [3 x float], ptr %86, i64 0, i64 0
  %88 = getelementptr inbounds [3 x float], ptr %7, i64 0, i64 0
  %89 = getelementptr inbounds [3 x float], ptr %8, i64 0, i64 0
  %90 = getelementptr inbounds [3 x float], ptr %9, i64 0, i64 0
  %91 = getelementptr inbounds [3 x float], ptr %10, i64 0, i64 0
  %92 = getelementptr inbounds [3 x float], ptr %11, i64 0, i64 0
  %93 = call noundef float @_Z9dih_anglePKfS0_S0_S0_PK5t_pbcPfS4_S4_S4_S4_PiS5_S5_(ptr noundef %57, ptr noundef %67, ptr noundef %77, ptr noundef %87, ptr noundef null, ptr noundef %88, ptr noundef %89, ptr noundef %90, ptr noundef %91, ptr noundef %92, ptr noundef %4, ptr noundef %5, ptr noundef %6)
  %94 = load ptr, ptr %12, align 8, !tbaa !4
  %95 = getelementptr inbounds nuw %struct.t_dih, ptr %94, i32 0, i32 3
  store float %93, ptr %95, align 4, !tbaa !27
  br label %96

96:                                               ; preds = %41
  %97 = load i32, ptr %3, align 4, !tbaa !24
  %98 = add nsw i32 %97, 1
  store i32 %98, ptr %3, align 4, !tbaa !24
  br label %35, !llvm.loop !29

99:                                               ; preds = %35
  call void @llvm.lifetime.end.p0(i64 8, ptr %13) #14
  call void @llvm.lifetime.end.p0(i64 8, ptr %12) #14
  call void @llvm.lifetime.end.p0(i64 12, ptr %11) #14
  call void @llvm.lifetime.end.p0(i64 12, ptr %10) #14
  call void @llvm.lifetime.end.p0(i64 12, ptr %9) #14
  call void @llvm.lifetime.end.p0(i64 12, ptr %8) #14
  call void @llvm.lifetime.end.p0(i64 12, ptr %7) #14
  call void @llvm.lifetime.end.p0(i64 4, ptr %6) #14
  call void @llvm.lifetime.end.p0(i64 4, ptr %5) #14
  call void @llvm.lifetime.end.p0(i64 4, ptr %4) #14
  call void @llvm.lifetime.end.p0(i64 4, ptr %3) #14
  ret void
}