; Function Attrs: mustprogress uwtable
define internal fastcc void @_ZL9calc_dihsP7t_xrama(ptr noundef %0) unnamed_addr #0 {
  %2 = alloca i32, align 4
  %3 = alloca i32, align 4
  %4 = alloca i32, align 4
  %5 = alloca [3 x float], align 4
  %6 = alloca [3 x float], align 4
  %7 = alloca [3 x float], align 4
  %8 = alloca [3 x float], align 4
  %9 = alloca [3 x float], align 4
  call void @llvm.lifetime.start.p0(i64 4, ptr nonnull %2) #11
  call void @llvm.lifetime.start.p0(i64 4, ptr nonnull %3) #11
  call void @llvm.lifetime.start.p0(i64 4, ptr nonnull %4) #11
  call void @llvm.lifetime.start.p0(i64 12, ptr nonnull %5) #11
  call void @llvm.lifetime.start.p0(i64 12, ptr nonnull %6) #11
  call void @llvm.lifetime.start.p0(i64 12, ptr nonnull %7) #11
  call void @llvm.lifetime.start.p0(i64 12, ptr nonnull %8) #11
  call void @llvm.lifetime.start.p0(i64 12, ptr nonnull %9) #11
  %10 = getelementptr inbounds nuw i8, ptr %0, i64 104
  %11 = load ptr, ptr %10, align 8, !tbaa !18
  %12 = getelementptr inbounds nuw i8, ptr %0, i64 112
  %13 = load i32, ptr %12, align 8, !tbaa !19
  %14 = getelementptr inbounds nuw i8, ptr %0, i64 40
  %15 = load i32, ptr %14, align 8, !tbaa !20
  %16 = tail call noundef ptr @_Z14gmx_rmpbc_initPK6t_idef7PbcTypei(ptr noundef %11, i32 noundef %13, i32 noundef %15)
  %17 = load i32, ptr %14, align 8, !tbaa !20
  %18 = getelementptr inbounds nuw i8, ptr %0, i64 64
  %19 = getelementptr inbounds nuw i8, ptr %0, i64 56
  %20 = load ptr, ptr %19, align 8, !tbaa !17
  tail call void @_Z15gmx_rmpbc_applyP9gmx_rmpbciPA3_KfPA3_f(ptr noundef %16, i32 noundef %17, ptr noundef nonnull %18, ptr noundef %20)
  tail call void @_Z14gmx_rmpbc_doneP9gmx_rmpbc(ptr noundef %16)
  %21 = load i32, ptr %0, align 8, !tbaa !21
  %22 = icmp sgt i32 %21, 0
  br i1 %22, label %.lr.ph, label %._crit_edge

.lr.ph:                                           ; preds = %1
  %23 = getelementptr inbounds nuw i8, ptr %0, i64 8
  br label %24

24:                                               ; preds = %.lr.ph, %24
  %indvars.iv = phi i64 [ 0, %.lr.ph ], [ %indvars.iv.next, %24 ]
  %25 = load ptr, ptr %23, align 8, !tbaa !22
  %26 = getelementptr inbounds nuw %struct.t_dih, ptr %25, i64 %indvars.iv
  %27 = load ptr, ptr %19, align 8, !tbaa !17
  %28 = load i32, ptr %26, align 4, !tbaa !23
  %29 = sext i32 %28 to i64
  %30 = getelementptr inbounds [3 x float], ptr %27, i64 %29
  %31 = getelementptr inbounds nuw i8, ptr %26, i64 4
  %32 = load i32, ptr %31, align 4, !tbaa !23
  %33 = sext i32 %32 to i64
  %34 = getelementptr inbounds [3 x float], ptr %27, i64 %33
  %35 = getelementptr inbounds nuw i8, ptr %26, i64 8
  %36 = load i32, ptr %35, align 4, !tbaa !23
  %37 = sext i32 %36 to i64
  %38 = getelementptr inbounds [3 x float], ptr %27, i64 %37
  %39 = getelementptr inbounds nuw i8, ptr %26, i64 12
  %40 = load i32, ptr %39, align 4, !tbaa !23
  %41 = sext i32 %40 to i64
  %42 = getelementptr inbounds [3 x float], ptr %27, i64 %41
  %43 = call noundef float @_Z9dih_anglePKfS0_S0_S0_PK5t_pbcPfS4_S4_S4_S4_PiS5_S5_(ptr noundef %30, ptr noundef %34, ptr noundef %38, ptr noundef %42, ptr noundef null, ptr noundef nonnull %5, ptr noundef nonnull %6, ptr noundef nonnull %7, ptr noundef nonnull %8, ptr noundef nonnull %9, ptr noundef nonnull %2, ptr noundef nonnull %3, ptr noundef nonnull %4)
  %44 = getelementptr inbounds nuw i8, ptr %26, i64 24
  store float %43, ptr %44, align 4, !tbaa !24
  %indvars.iv.next = add nuw nsw i64 %indvars.iv, 1
  %45 = load i32, ptr %0, align 8, !tbaa !21
  %46 = sext i32 %45 to i64
  %47 = icmp slt i64 %indvars.iv.next, %46
  br i1 %47, label %24, label %._crit_edge, !llvm.loop !26

._crit_edge:                                      ; preds = %24, %1
  call void @llvm.lifetime.end.p0(i64 12, ptr nonnull %9) #11
  call void @llvm.lifetime.end.p0(i64 12, ptr nonnull %8) #11
  call void @llvm.lifetime.end.p0(i64 12, ptr nonnull %7) #11
  call void @llvm.lifetime.end.p0(i64 12, ptr nonnull %6) #11
  call void @llvm.lifetime.end.p0(i64 12, ptr nonnull %5) #11
  call void @llvm.lifetime.end.p0(i64 4, ptr nonnull %4) #11
  call void @llvm.lifetime.end.p0(i64 4, ptr nonnull %3) #11
  call void @llvm.lifetime.end.p0(i64 4, ptr nonnull %2) #11
  ret void
}